target datalayout = "e-m:e-p270:32:32-p271:32:32-p272:64:64-i64:64-i128:128-f80:128-n8:16:32:64-S128"
target triple = "x86_64-pc-linux-gnu"

%struct.aiString = type { i32, [1024 x i8] }
%class.aiVector3t = type { float, float, float }
%struct.aiLight = type { %struct.aiString, i32, %class.aiVector3t, %class.aiVector3t, %class.aiVector3t, float, float, float, %struct.aiColor3D, %struct.aiColor3D, %struct.aiColor3D, float, float, %class.aiVector2t }
%struct.aiColor3D = type { float, float, float }
%class.aiVector2t = type { float, float }

; Function Attrs: mustprogress nounwind uwtable
define linkonce_odr hidden noundef nonnull align 4 dereferenceable(12) ptr @_ZN9aiColor3DaSERKS_(ptr noundef nonnull align 4 dereferenceable(12) %0, ptr noundef nonnull align 4 dereferenceable(12) %1) #4 comdat align 2 {
  %3 = alloca ptr, align 8
  %4 = alloca ptr, align 8
  store ptr %0, ptr %3, align 8
  store ptr %1, ptr %4, align 8
  %5 = load ptr, ptr %3, align 8
  %6 = load ptr, ptr %4, align 8
  %7 = getelementptr inbounds nuw %struct.aiColor3D, ptr %6, i32 0, i32 0
  %8 = load float, ptr %7, align 4
  %9 = getelementptr inbounds nuw %struct.aiColor3D, ptr %5, i32 0, i32 0
  store float %8, ptr %9, align 4
  %10 = load ptr, ptr %4, align 8
  %11 = getelementptr inbounds nuw %struct.aiColor3D, ptr %10, i32 0, i32 1
  %12 = load float, ptr %11, align 4
  %13 = getelementptr inbounds nuw %struct.aiColor3D, ptr %5, i32 0, i32 1
  store float %12, ptr %13, align 4
  %14 = load ptr, ptr %4, align 8
  %15 = getelementptr inbounds nuw %struct.aiColor3D, ptr %14, i32 0, i32 2
  %16 = load float, ptr %15, align 4
  %17 = getelementptr inbounds nuw %struct.aiColor3D, ptr %5, i32 0, i32 2
  store float %16, ptr %17, align 4
  ret ptr %5
}

; Function Attrs: mustprogress nounwind uwtable
define linkonce_odr hidden noundef nonnull align 4 dereferenceable(1028) ptr @_ZN8aiStringaSERKS_(ptr noundef nonnull align 4 dereferenceable(1028) %0, ptr noundef nonnull align 4 dereferenceable(1028) %1) #4 comdat align 2 {
  %3 = alloca ptr, align 8
  %4 = alloca ptr, align 8
  %5 = alloca ptr, align 8
  store ptr %0, ptr %4, align 8
  store ptr %1, ptr %5, align 8
  %6 = load ptr, ptr %4, align 8
  %7 = load ptr, ptr %5, align 8
  %8 = icmp eq ptr %6, %7
  br i1 %8, label %9, label %10

9:                                                ; preds = %2
  store ptr %6, ptr %3, align 8
  br label %35

10:                                               ; preds = %2
  %11 = load ptr, ptr %5, align 8
  %12 = getelementptr inbounds nuw %struct.aiString, ptr %11, i32 0, i32 0
  %13 = load i32, ptr %12, align 4
  %14 = getelementptr inbounds nuw %struct.aiString, ptr %6, i32 0, i32 0
  store i32 %13, ptr %14, align 4
  %15 = getelementptr inbounds nuw %struct.aiString, ptr %6, i32 0, i32 0
  %16 = load i32, ptr %15, align 4
  %17 = zext i32 %16 to i64
  %18 = icmp ugt i64 %17, 1023
  br i1 %18, label %19, label %21

19:                                               ; preds = %10
  %20 = getelementptr inbounds nuw %struct.aiString, ptr %6, i32 0, i32 0
  store i32 1023, ptr %20, align 4
  br label %21

21:                                               ; preds = %19, %10
  %22 = getelementptr inbounds nuw %struct.aiString, ptr %6, i32 0, i32 1
  %23 = getelementptr inbounds [1024 x i8], ptr %22, i64 0, i64 0
  %24 = load ptr, ptr %5, align 8
  %25 = getelementptr inbounds nuw %struct.aiString, ptr %24, i32 0, i32 1
  %26 = getelementptr inbounds [1024 x i8], ptr %25, i64 0, i64 0
  %27 = getelementptr inbounds nuw %struct.aiString, ptr %6, i32 0, i32 0
  %28 = load i32, ptr %27, align 4
  %29 = zext i32 %28 to i64
  call void @llvm.memcpy.p0.p0.i64(ptr align 4 %23, ptr align 4 %26, i64 %29, i1 false)
  %30 = getelementptr inbounds nuw %struct.aiString, ptr %6, i32 0, i32 1
  %31 = getelementptr inbounds nuw %struct.aiString, ptr %6, i32 0, i32 0
  %32 = load i32, ptr %31, align 4
  %33 = zext i32 %32 to i64
  %34 = getelementptr inbounds nuw [1024 x i8], ptr %30, i64 0, i64 %33
  store i8 0, ptr %34, align 1
  store ptr %6, ptr %3, align 8
  br label %35

35:                                               ; preds = %21, %9
  %36 = load ptr, ptr %3, align 8
  ret ptr %36
}

; Function Attrs: noinline noreturn nounwind uwtable
define linkonce_odr hidden void @__clang_call_terminate(ptr noundef %0) #13 comdat {
  %2 = call ptr @__cxa_begin_catch(ptr %0) #17
  call void @_ZSt9terminatev() #21
  unreachable
}

; Function Attrs: mustprogress nounwind uwtable
define linkonce_odr hidden void @_ZN10aiVector2tIfEC2Eff(ptr noundef nonnull align 4 dereferenceable(8) %0, float noundef %1, float noundef %2) unnamed_addr #4 comdat align 2 {
  %4 = alloca ptr, align 8
  %5 = alloca float, align 4
  %6 = alloca float, align 4
  store ptr %0, ptr %4, align 8
  store float %1, ptr %5, align 4
  store float %2, ptr %6, align 4
  %7 = load ptr, ptr %4, align 8
  %8 = getelementptr inbounds nuw %class.aiVector2t, ptr %7, i32 0, i32 0
  %9 = load float, ptr %5, align 4
  store float %9, ptr %8, align 4
  %10 = getelementptr inbounds nuw %class.aiVector2t, ptr %7, i32 0, i32 1
  %11 = load float, ptr %6, align 4
  store float %11, ptr %10, align 4
  ret void
}

; Function Attrs: mustprogress nounwind uwtable
define linkonce_odr hidden void @_ZN9aiColor3DC2Ev(ptr noundef nonnull align 4 dereferenceable(12) %0) unnamed_addr #4 comdat align 2 {
  %2 = alloca ptr, align 8
  store ptr %0, ptr %2, align 8
  %3 = load ptr, ptr %2, align 8
  %4 = getelementptr inbounds nuw %struct.aiColor3D, ptr %3, i32 0, i32 0
  store float 0.000000e+00, ptr %4, align 4
  %5 = getelementptr inbounds nuw %struct.aiColor3D, ptr %3, i32 0, i32 1
  store float 0.000000e+00, ptr %5, align 4
  %6 = getelementptr inbounds nuw %struct.aiColor3D, ptr %3, i32 0, i32 2
  store float 0.000000e+00, ptr %6, align 4
  ret void
}

; Function Attrs: mustprogress nounwind uwtable
define linkonce_odr hidden void @_ZN10aiVector3tIfEC2Ev(ptr noundef nonnull align 4 dereferenceable(12) %0) unnamed_addr #4 comdat align 2 {
  %2 = alloca ptr, align 8
  store ptr %0, ptr %2, align 8
  %3 = load ptr, ptr %2, align 8
  %4 = getelementptr inbounds nuw %class.aiVector3t, ptr %3, i32 0, i32 0
  store float 0.000000e+00, ptr %4, align 4
  %5 = getelementptr inbounds nuw %class.aiVector3t, ptr %3, i32 0, i32 1
  store float 0.000000e+00, ptr %5, align 4
  %6 = getelementptr inbounds nuw %class.aiVector3t, ptr %3, i32 0, i32 2
  store float 0.000000e+00, ptr %6, align 4
  ret void
}

; Function Attrs: mustprogress nounwind uwtable
define linkonce_odr hidden void @_ZN8aiStringC2Ev(ptr noundef nonnull align 4 dereferenceable(1028) %0) unnamed_addr #4 comdat align 2 {
  %2 = alloca ptr, align 8
  store ptr %0, ptr %2, align 8
  %3 = load ptr, ptr %2, align 8
  %4 = getelementptr inbounds nuw %struct.aiString, ptr %3, i32 0, i32 0
  store i32 0, ptr %4, align 4
  %5 = getelementptr inbounds nuw %struct.aiString, ptr %3, i32 0, i32 1
  call void @llvm.memset.p0.i64(ptr align 4 %5, i8 0, i64 1024, i1 false)
  ret void
}

; Function Attrs: inlinehint mustprogress uwtable
define linkonce_odr hidden noundef nonnull align 4 dereferenceable(1132) ptr @_ZN7aiLightaSERKS_(ptr noundef nonnull align 4 dereferenceable(1132) %0, ptr noundef nonnull align 4 dereferenceable(1132) %1) #3 comdat align 2 {
  %3 = alloca ptr, align 8
  %4 = alloca ptr, align 8
  store ptr %0, ptr %3, align 8
  store ptr %1, ptr %4, align 8
  %5 = load ptr, ptr %3, align 8
  %6 = getelementptr inbounds nuw %struct.aiLight, ptr %5, i32 0, i32 0
  %7 = load ptr, ptr %4, align 8
  %8 = getelementptr inbounds nuw %struct.aiLight, ptr %7, i32 0, i32 0
  %9 = call noundef nonnull align 4 dereferenceable(1028) ptr @_ZN8aiStringaSERKS_(ptr noundef nonnull align 4 dereferenceable(1028) %6, ptr noundef nonnull align 4 dereferenceable(1028) %8)
  %10 = getelementptr inbounds nuw %struct.aiLight, ptr %5, i32 0, i32 1
  %11 = load ptr, ptr %4, align 8
  %12 = getelementptr inbounds nuw %struct.aiLight, ptr %11, i32 0, i32 1
  call void @llvm.memcpy.p0.p0.i64(ptr align 4 %10, ptr align 4 %12, i64 52, i1 false)
  %13 = getelementptr inbounds nuw %struct.aiLight, ptr %5, i32 0, i32 8
  %14 = load ptr, ptr %4, align 8
  %15 = getelementptr inbounds nuw %struct.aiLight, ptr %14, i32 0, i32 8
  %16 = call noundef nonnull align 4 dereferenceable(12) ptr @_ZN9aiColor3DaSERKS_(ptr noundef nonnull align 4 dereferenceable(12) %13, ptr noundef nonnull align 4 dereferenceable(12) %15)
  %17 = getelementptr inbounds nuw %struct.aiLight, ptr %5, i32 0, i32 9
  %18 = load ptr, ptr %4, align 8
  %19 = getelementptr inbounds nuw %struct.aiLight, ptr %18, i32 0, i32 9
  %20 = call noundef nonnull align 4 dereferenceable(12) ptr @_ZN9aiColor3DaSERKS_(ptr noundef nonnull align 4 dereferenceable(12) %17, ptr noundef nonnull align 4 dereferenceable(12) %19)
  %21 = getelementptr inbounds nuw %struct.aiLight, ptr %5, i32 0, i32 10
  %22 = load ptr, ptr %4, align 8
  %23 = getelementptr inbounds nuw %struct.aiLight, ptr %22, i32 0, i32 10
  %24 = call noundef nonnull align 4 dereferenceable(12) ptr @_ZN9aiColor3DaSERKS_(ptr noundef nonnull align 4 dereferenceable(12) %21, ptr noundef nonnull align 4 dereferenceable(12) %23)
  %25 = getelementptr inbounds nuw %struct.aiLight, ptr %5, i32 0, i32 11
  %26 = load ptr, ptr %4, align 8
  %27 = getelementptr inbounds nuw %struct.aiLight, ptr %26, i32 0, i32 11
  call void @llvm.memcpy.p0.p0.i64(ptr align 4 %25, ptr align 4 %27, i64 16, i1 false)
  ret ptr %5
}

; Function Attrs: mustprogress nounwind uwtable
define linkonce_odr hidden void @_ZN7aiLightC2Ev(ptr noundef nonnull align 4 dereferenceable(1132) %0) unnamed_addr #4 comdat align 2 personality ptr @__gxx_personality_v0 {
  %2 = alloca ptr, align 8
  store ptr %0, ptr %2, align 8
  %3 = load ptr, ptr %2, align 8
  %4 = getelementptr inbounds nuw %struct.aiLight, ptr %3, i32 0, i32 0
  call void @_ZN8aiStringC2Ev(ptr noundef nonnull align 4 dereferenceable(1028) %4) #17
  %5 = getelementptr inbounds nuw %struct.aiLight, ptr %3, i32 0, i32 1
  store i32 0, ptr %5, align 4
  %6 = getelementptr inbounds nuw %struct.aiLight, ptr %3, i32 0, i32 2
  call void @_ZN10aiVector3tIfEC2Ev(ptr noundef nonnull align 4 dereferenceable(12) %6) #17
  %7 = getelementptr inbounds nuw %struct.aiLight, ptr %3, i32 0, i32 3
  call void @_ZN10aiVector3tIfEC2Ev(ptr noundef nonnull align 4 dereferenceable(12) %7) #17
  %8 = getelementptr inbounds nuw %struct.aiLight, ptr %3, i32 0, i32 4
  call void @_ZN10aiVector3tIfEC2Ev(ptr noundef nonnull align 4 dereferenceable(12) %8) #17
  %9 = getelementptr inbounds nuw %struct.aiLight, ptr %3, i32 0, i32 5
  store float 0.000000e+00, ptr %9, align 4
  %10 = getelementptr inbounds nuw %struct.aiLight, ptr %3, i32 0, i32 6
  store float 1.000000e+00, ptr %10, align 4
  %11 = getelementptr inbounds nuw %struct.aiLight, ptr %3, i32 0, i32 7
  store float 0.000000e+00, ptr %11, align 4
  %12 = getelementptr inbounds nuw %struct.aiLight, ptr %3, i32 0, i32 8
  call void @_ZN9aiColor3DC2Ev(ptr noundef nonnull align 4 dereferenceable(12) %12) #17
  %13 = getelementptr inbounds nuw %struct.aiLight, ptr %3, i32 0, i32 9
  call void @_ZN9aiColor3DC2Ev(ptr noundef nonnull align 4 dereferenceable(12) %13) #17
  %14 = getelementptr inbounds nuw %struct.aiLight, ptr %3, i32 0, i32 10
  call void @_ZN9aiColor3DC2Ev(ptr noundef nonnull align 4 dereferenceable(12) %14) #17
  %15 = getelementptr inbounds nuw %struct.aiLight, ptr %3, i32 0, i32 11
  store float 0x401921FB60000000, ptr %15, align 4
  %16 = getelementptr inbounds nuw %struct.aiLight, ptr %3, i32 0, i32 12
  store float 0x401921FB60000000, ptr %16, align 4
  %17 = getelementptr inbounds nuw %struct.aiLight, ptr %3, i32 0, i32 13
  invoke void @_ZN10aiVector2tIfEC2Eff(ptr noundef nonnull align 4 dereferenceable(8) %17, float noundef 0.000000e+00, float noundef 0.000000e+00)
          to label %18 unwind label %19

18:                                               ; preds = %1
  ret void

19:                                               ; preds = %1
  %20 = landingpad { ptr, i32 }
          catch ptr null
  %21 = extractvalue { ptr, i32 } %20, 0
  call void @__clang_call_terminate(ptr %21) #21
  unreachable
}

; Function Attrs: mustprogress uwtable
define void @_ZN6Assimp13SceneCombiner4CopyEPP7aiLightPKS1_(ptr noundef %0, ptr noundef %1) #0 align 2 {
  %3 = alloca ptr, align 8
  %4 = alloca ptr, align 8
  %5 = alloca ptr, align 8
  store ptr %0, ptr %3, align 8
  store ptr %1, ptr %4, align 8
  %6 = load ptr, ptr %3, align 8
  %7 = icmp eq ptr null, %6
  br i1 %7, label %11, label %8

8:                                                ; preds = %2
  %9 = load ptr, ptr %4, align 8
  %10 = icmp eq ptr null, %9
  br i1 %10, label %11, label %12

11:                                               ; preds = %8, %2
  br label %18

12:                                               ; preds = %8
  call void @llvm.lifetime.start.p0(i64 8, ptr %5) #17
  %13 = call noalias noundef nonnull ptr @_Znwm(i64 noundef 1132) #19
  call void @_ZN7aiLightC2Ev(ptr noundef nonnull align 4 dereferenceable(1132) %13) #17
  %14 = load ptr, ptr %3, align 8
  store ptr %13, ptr %14, align 8
  store ptr %13, ptr %5, align 8
  %15 = load ptr, ptr %4, align 8
  %16 = load ptr, ptr %5, align 8
  %17 = call noundef nonnull align 4 dereferenceable(1132) ptr @_ZN7aiLightaSERKS_(ptr noundef nonnull align 4 dereferenceable(1132) %16, ptr noundef nonnull align 4 dereferenceable(1132) %15)
  call void @llvm.lifetime.end.p0(i64 8, ptr %5) #17
  br label %18

18:                                               ; preds = %12, %11
  ret void
}