; Function Attrs: mustprogress uwtable
define void @_ZN6Assimp13SceneCombiner4CopyEPP7aiLightPKS1_(ptr noundef writeonly captures(address_is_null) %0, ptr noundef readonly captures(address) %1) local_unnamed_addr #0 align 2 personality ptr @__gxx_personality_v0 {
  %3 = icmp eq ptr %0, null
  %4 = icmp eq ptr %1, null
  %or.cond = or i1 %3, %4
  br i1 %or.cond, label %45, label %5

5:                                                ; preds = %2
  %6 = tail call noalias noundef nonnull dereferenceable(1132) ptr @_Znwm(i64 noundef 1132) #22
  tail call void @llvm.memset.p0.i64(ptr noundef nonnull align 4 dereferenceable(1132) %6, i8 0, i64 1028, i1 false)
  %7 = getelementptr inbounds nuw i8, ptr %6, i64 1116
  store ptr %6, ptr %0, align 8
  %8 = icmp eq ptr %6, %1
  br i1 %8, label %_ZN7aiLightaSERKS_.exit, label %9

9:                                                ; preds = %5
  %10 = load i32, ptr %1, align 4
  %spec.select.i.i = tail call i32 @llvm.umin.i32(i32 %10, i32 1023)
  store i32 %spec.select.i.i, ptr %6, align 4
  %11 = getelementptr inbounds nuw i8, ptr %6, i64 4
  %12 = getelementptr inbounds nuw i8, ptr %1, i64 4
  %13 = zext nneg i32 %spec.select.i.i to i64
  tail call void @llvm.memcpy.p0.p0.i64(ptr nonnull align 4 %11, ptr nonnull align 4 %12, i64 %13, i1 false)
  %14 = getelementptr inbounds nuw [1024 x i8], ptr %11, i64 0, i64 %13
  store i8 0, ptr %14, align 1
  br label %_ZN7aiLightaSERKS_.exit

_ZN7aiLightaSERKS_.exit:                          ; preds = %5, %9
  %15 = getelementptr inbounds nuw i8, ptr %6, i64 1028
  %16 = getelementptr inbounds nuw i8, ptr %1, i64 1028
  tail call void @llvm.memcpy.p0.p0.i64(ptr noundef nonnull align 4 dereferenceable(52) %15, ptr noundef nonnull align 4 dereferenceable(52) %16, i64 52, i1 false)
  %17 = getelementptr inbounds nuw i8, ptr %6, i64 1080
  %18 = getelementptr inbounds nuw i8, ptr %1, i64 1080
  %19 = load float, ptr %18, align 4
  store float %19, ptr %17, align 4
  %20 = getelementptr inbounds nuw i8, ptr %1, i64 1084
  %21 = load float, ptr %20, align 4
  %22 = getelementptr inbounds nuw i8, ptr %6, i64 1084
  store float %21, ptr %22, align 4
  %23 = getelementptr inbounds nuw i8, ptr %1, i64 1088
  %24 = load float, ptr %23, align 4
  %25 = getelementptr inbounds nuw i8, ptr %6, i64 1088
  store float %24, ptr %25, align 4
  %26 = getelementptr inbounds nuw i8, ptr %6, i64 1092
  %27 = getelementptr inbounds nuw i8, ptr %1, i64 1092
  %28 = load float, ptr %27, align 4
  store float %28, ptr %26, align 4
  %29 = getelementptr inbounds nuw i8, ptr %1, i64 1096
  %30 = load float, ptr %29, align 4
  %31 = getelementptr inbounds nuw i8, ptr %6, i64 1096
  store float %30, ptr %31, align 4
  %32 = getelementptr inbounds nuw i8, ptr %1, i64 1100
  %33 = load float, ptr %32, align 4
  %34 = getelementptr inbounds nuw i8, ptr %6, i64 1100
  store float %33, ptr %34, align 4
  %35 = getelementptr inbounds nuw i8, ptr %6, i64 1104
  %36 = getelementptr inbounds nuw i8, ptr %1, i64 1104
  %37 = load float, ptr %36, align 4
  store float %37, ptr %35, align 4
  %38 = getelementptr inbounds nuw i8, ptr %1, i64 1108
  %39 = load float, ptr %38, align 4
  %40 = getelementptr inbounds nuw i8, ptr %6, i64 1108
  store float %39, ptr %40, align 4
  %41 = getelementptr inbounds nuw i8, ptr %1, i64 1112
  %42 = load float, ptr %41, align 4
  %43 = getelementptr inbounds nuw i8, ptr %6, i64 1112
  store float %42, ptr %43, align 4
  %44 = getelementptr inbounds nuw i8, ptr %1, i64 1116
  tail call void @llvm.memcpy.p0.p0.i64(ptr noundef nonnull align 4 dereferenceable(16) %7, ptr noundef nonnull align 4 dereferenceable(16) %44, i64 16, i1 false)
  br label %45

45:                                               ; preds = %2, %_ZN7aiLightaSERKS_.exit
  ret void
}